target datalayout = "e-m:e-p270:32:32-p271:32:32-p272:64:64-i64:64-i128:128-f80:128-n8:16:32:64-S128"
target triple = "x86_64-pc-linux-gnu"

%struct.CVodeMemRec = type { ptr, double, ptr, ptr, i32, i32, double, double, ptr, i32, i32, ptr, ptr, i32, [13 x ptr], ptr, ptr, ptr, ptr, ptr, ptr, ptr, ptr, ptr, i32, i32, double, i32, i32, i32, i32, i32, double, double, double, double, double, double, double, double, [14 x double], [6 x double], [13 x double], double, double, double, double, double, double, double, i32, double, i32, i64, i32, i32, i32, double, double, double, double, double, double, double, double, double, double, double, double, i64, i32, i64, i64, i64, i64, i64, i64, i64, i32, double, double, double, i64, i64, i64, i64, ptr, i32, ptr, i32, ptr, ptr, ptr, ptr, ptr, i64, double, i32, i64, double, double, double, i32, double, i32, i32, i32, i32, i32, ptr, i64, i32, [6 x [4 x double]], i32, i64, ptr, i32, ptr, ptr, double, double, double, ptr, ptr, ptr, double, double, i32, i32, i64, ptr, i32, ptr, i32, i32, [13 x double], [13 x double], [13 x ptr], i32 }
%struct.CVLsMemRec = type { i32, i32, i32, ptr, ptr, i32, double, i32, double, double, ptr, ptr, ptr, ptr, ptr, ptr, ptr, i64, i64, i64, i64, i64, i64, i64, i64, i64, i64, double, ptr, ptr, ptr, ptr, i32, ptr, ptr, ptr, ptr, i32, ptr, ptr, i32 }

@.str = private unnamed_addr constant [116 x i8] c"generated/home/dtcxzyw/WorkSpace/Projects/compilers/llvm-opt-benchmark/bench/sundials/sundials/src/cvode/cvode_ls.c\00", align 1
@.str.1 = private unnamed_addr constant [27 x i8] c"Integrator memory is NULL.\00", align 1
@__func__.CVodeGetLinSolveStats = private unnamed_addr constant [22 x i8] c"CVodeGetLinSolveStats\00", align 1
@.str.30 = private unnamed_addr constant [30 x i8] c"Linear solver memory is NULL.\00", align 1

; Function Attrs: nounwind uwtable
define i32 @cvLs_AccessLMem(ptr noundef %0, ptr noundef %1, ptr noundef %2, ptr noundef %3) #0 {
  %5 = alloca i32, align 4
  %6 = alloca ptr, align 8
  %7 = alloca ptr, align 8
  %8 = alloca ptr, align 8
  %9 = alloca ptr, align 8
  store ptr %0, ptr %6, align 8, !tbaa !3
  store ptr %1, ptr %7, align 8, !tbaa !117
  store ptr %2, ptr %8, align 8, !tbaa !119
  store ptr %3, ptr %9, align 8, !tbaa !121
  %10 = load ptr, ptr %6, align 8, !tbaa !3
  %11 = icmp eq ptr %10, null
  br i1 %11, label %12, label %14

12:                                               ; preds = %4
  %13 = load ptr, ptr %7, align 8, !tbaa !117
  call void (ptr, i32, i32, ptr, ptr, ptr, ...) @cvProcessError(ptr noundef null, i32 noundef -1, i32 noundef 1930, ptr noundef %13, ptr noundef @.str, ptr noundef @.str.1)
  store i32 -1, ptr %5, align 4
  br label %32

14:                                               ; preds = %4
  %15 = load ptr, ptr %6, align 8, !tbaa !3
  %16 = load ptr, ptr %8, align 8, !tbaa !119
  store ptr %15, ptr %16, align 8, !tbaa !11
  %17 = load ptr, ptr %8, align 8, !tbaa !119
  %18 = load ptr, ptr %17, align 8, !tbaa !11
  %19 = getelementptr inbounds nuw %struct.CVodeMemRec, ptr %18, i32 0, i32 94
  %20 = load ptr, ptr %19, align 8, !tbaa !79
  %21 = icmp eq ptr %20, null
  br i1 %21, label %22, label %26

22:                                               ; preds = %14
  %23 = load ptr, ptr %8, align 8, !tbaa !119
  %24 = load ptr, ptr %23, align 8, !tbaa !11
  %25 = load ptr, ptr %7, align 8, !tbaa !117
  call void (ptr, i32, i32, ptr, ptr, ptr, ...) @cvProcessError(ptr noundef %24, i32 noundef -2, i32 noundef 1937, ptr noundef %25, ptr noundef @.str, ptr noundef @.str.30)
  store i32 -2, ptr %5, align 4
  br label %32

26:                                               ; preds = %14
  %27 = load ptr, ptr %8, align 8, !tbaa !119
  %28 = load ptr, ptr %27, align 8, !tbaa !11
  %29 = getelementptr inbounds nuw %struct.CVodeMemRec, ptr %28, i32 0, i32 94
  %30 = load ptr, ptr %29, align 8, !tbaa !79
  %31 = load ptr, ptr %9, align 8, !tbaa !121
  store ptr %30, ptr %31, align 8, !tbaa !43
  store i32 0, ptr %5, align 4
  br label %32

32:                                               ; preds = %26, %22, %12
  %33 = load i32, ptr %5, align 4
  ret i32 %33
}

; Function Attrs: nounwind uwtable
define i32 @CVodeGetLinSolveStats(ptr noundef %0, ptr noundef %1, ptr noundef %2, ptr noundef %3, ptr noundef %4, ptr noundef %5, ptr noundef %6, ptr noundef %7, ptr noundef %8) #0 {
  %10 = alloca i32, align 4
  %11 = alloca ptr, align 8
  %12 = alloca ptr, align 8
  %13 = alloca ptr, align 8
  %14 = alloca ptr, align 8
  %15 = alloca ptr, align 8
  %16 = alloca ptr, align 8
  %17 = alloca ptr, align 8
  %18 = alloca ptr, align 8
  %19 = alloca ptr, align 8
  %20 = alloca ptr, align 8
  %21 = alloca ptr, align 8
  %22 = alloca i32, align 4
  %23 = alloca i32, align 4
  store ptr %0, ptr %11, align 8, !tbaa !3
  store ptr %1, ptr %12, align 8, !tbaa !126
  store ptr %2, ptr %13, align 8, !tbaa !126
  store ptr %3, ptr %14, align 8, !tbaa !126
  store ptr %4, ptr %15, align 8, !tbaa !126
  store ptr %5, ptr %16, align 8, !tbaa !126
  store ptr %6, ptr %17, align 8, !tbaa !126
  store ptr %7, ptr %18, align 8, !tbaa !126
  store ptr %8, ptr %19, align 8, !tbaa !126
  call void @llvm.lifetime.start.p0(i64 8, ptr %20) #7
  call void @llvm.lifetime.start.p0(i64 8, ptr %21) #7
  call void @llvm.lifetime.start.p0(i64 4, ptr %22) #7
  %24 = load ptr, ptr %11, align 8, !tbaa !3
  %25 = call i32 @cvLs_AccessLMem(ptr noundef %24, ptr noundef @__func__.CVodeGetLinSolveStats, ptr noundef %20, ptr noundef %21)
  store i32 %25, ptr %22, align 4, !tbaa !20
  %26 = load i32, ptr %22, align 4, !tbaa !20
  %27 = icmp ne i32 %26, 0
  br i1 %27, label %28, label %30

28:                                               ; preds = %9
  %29 = load i32, ptr %22, align 4, !tbaa !20
  store i32 %29, ptr %10, align 4
  store i32 1, ptr %23, align 4
  br label %63

30:                                               ; preds = %9
  %31 = load ptr, ptr %21, align 8, !tbaa !43
  %32 = getelementptr inbounds nuw %struct.CVLsMemRec, ptr %31, i32 0, i32 18
  %33 = load i64, ptr %32, align 8, !tbaa !95
  %34 = load ptr, ptr %12, align 8, !tbaa !126
  store i64 %33, ptr %34, align 8, !tbaa !101
  %35 = load ptr, ptr %21, align 8, !tbaa !43
  %36 = getelementptr inbounds nuw %struct.CVLsMemRec, ptr %35, i32 0, i32 19
  %37 = load i64, ptr %36, align 8, !tbaa !115
  %38 = load ptr, ptr %13, align 8, !tbaa !126
  store i64 %37, ptr %38, align 8, !tbaa !101
  %39 = load ptr, ptr %21, align 8, !tbaa !43
  %40 = getelementptr inbounds nuw %struct.CVLsMemRec, ptr %39, i32 0, i32 22
  %41 = load i64, ptr %40, align 8, !tbaa !106
  %42 = load ptr, ptr %14, align 8, !tbaa !126
  store i64 %41, ptr %42, align 8, !tbaa !101
  %43 = load ptr, ptr %21, align 8, !tbaa !43
  %44 = getelementptr inbounds nuw %struct.CVLsMemRec, ptr %43, i32 0, i32 24
  %45 = load i64, ptr %44, align 8, !tbaa !107
  %46 = load ptr, ptr %15, align 8, !tbaa !126
  store i64 %45, ptr %46, align 8, !tbaa !101
  %47 = load ptr, ptr %21, align 8, !tbaa !43
  %48 = getelementptr inbounds nuw %struct.CVLsMemRec, ptr %47, i32 0, i32 21
  %49 = load i64, ptr %48, align 8, !tbaa !97
  %50 = load ptr, ptr %16, align 8, !tbaa !126
  store i64 %49, ptr %50, align 8, !tbaa !101
  %51 = load ptr, ptr %21, align 8, !tbaa !43
  %52 = getelementptr inbounds nuw %struct.CVLsMemRec, ptr %51, i32 0, i32 23
  %53 = load i64, ptr %52, align 8, !tbaa !100
  %54 = load ptr, ptr %17, align 8, !tbaa !126
  store i64 %53, ptr %54, align 8, !tbaa !101
  %55 = load ptr, ptr %21, align 8, !tbaa !43
  %56 = getelementptr inbounds nuw %struct.CVLsMemRec, ptr %55, i32 0, i32 25
  %57 = load i64, ptr %56, align 8, !tbaa !102
  %58 = load ptr, ptr %18, align 8, !tbaa !126
  store i64 %57, ptr %58, align 8, !tbaa !101
  %59 = load ptr, ptr %21, align 8, !tbaa !43
  %60 = getelementptr inbounds nuw %struct.CVLsMemRec, ptr %59, i32 0, i32 26
  %61 = load i64, ptr %60, align 8, !tbaa !116
  %62 = load ptr, ptr %19, align 8, !tbaa !126
  store i64 %61, ptr %62, align 8, !tbaa !101
  store i32 0, ptr %10, align 4
  store i32 1, ptr %23, align 4
  br label %63

63:                                               ; preds = %30, %28
  call void @llvm.lifetime.end.p0(i64 4, ptr %22) #7
  call void @llvm.lifetime.end.p0(i64 8, ptr %21) #7
  call void @llvm.lifetime.end.p0(i64 8, ptr %20) #7
  %64 = load i32, ptr %10, align 4
  ret i32 %64
}