; Function Attrs: nounwind uwtable
define range(i32 -2, 1) i32 @CVodeGetLinSolveStats(ptr noundef %0, ptr noundef writeonly captures(none) %1, ptr noundef writeonly captures(none) %2, ptr noundef writeonly captures(none) %3, ptr noundef writeonly captures(none) %4, ptr noundef writeonly captures(none) %5, ptr noundef writeonly captures(none) %6, ptr noundef writeonly captures(none) %7, ptr noundef writeonly captures(none) %8) local_unnamed_addr #0 {
  %10 = icmp eq ptr %0, null
  br i1 %10, label %11, label %12

11:                                               ; preds = %9
  tail call void (ptr, i32, i32, ptr, ptr, ptr, ...) @cvProcessError(ptr noundef null, i32 noundef -1, i32 noundef 1930, ptr noundef nonnull @__func__.CVodeGetLinSolveStats, ptr noundef nonnull @.str, ptr noundef nonnull @.str.1) #13
  br label %cvLs_AccessLMem.exit.thread

12:                                               ; preds = %9
  %13 = getelementptr inbounds nuw i8, ptr %0, i64 1040
  %14 = load ptr, ptr %13, align 8, !tbaa !69
  %15 = icmp eq ptr %14, null
  br i1 %15, label %16, label %cvLs_AccessLMem.exit

16:                                               ; preds = %12
  tail call void (ptr, i32, i32, ptr, ptr, ptr, ...) @cvProcessError(ptr noundef nonnull %0, i32 noundef -2, i32 noundef 1937, ptr noundef nonnull @__func__.CVodeGetLinSolveStats, ptr noundef nonnull @.str, ptr noundef nonnull @.str.30) #13
  br label %cvLs_AccessLMem.exit.thread

cvLs_AccessLMem.exit:                             ; preds = %12
  %17 = getelementptr inbounds nuw i8, ptr %14, i64 136
  %18 = load i64, ptr %17, align 8, !tbaa !83
  store i64 %18, ptr %1, align 8, !tbaa !112
  %19 = getelementptr inbounds nuw i8, ptr %14, i64 144
  %20 = load i64, ptr %19, align 8, !tbaa !103
  store i64 %20, ptr %2, align 8, !tbaa !112
  %21 = getelementptr inbounds nuw i8, ptr %14, i64 168
  %22 = load i64, ptr %21, align 8, !tbaa !93
  store i64 %22, ptr %3, align 8, !tbaa !112
  %23 = getelementptr inbounds nuw i8, ptr %14, i64 184
  %24 = load i64, ptr %23, align 8, !tbaa !94
  store i64 %24, ptr %4, align 8, !tbaa !112
  %25 = getelementptr inbounds nuw i8, ptr %14, i64 160
  %26 = load i64, ptr %25, align 8, !tbaa !85
  store i64 %26, ptr %5, align 8, !tbaa !112
  %27 = getelementptr inbounds nuw i8, ptr %14, i64 176
  %28 = load i64, ptr %27, align 8, !tbaa !110
  store i64 %28, ptr %6, align 8, !tbaa !112
  %29 = getelementptr inbounds nuw i8, ptr %14, i64 192
  %30 = load i64, ptr %29, align 8, !tbaa !89
  store i64 %30, ptr %7, align 8, !tbaa !112
  %31 = getelementptr inbounds nuw i8, ptr %14, i64 200
  %32 = load i64, ptr %31, align 8, !tbaa !104
  store i64 %32, ptr %8, align 8, !tbaa !112
  br label %cvLs_AccessLMem.exit.thread

cvLs_AccessLMem.exit.thread:                      ; preds = %16, %11, %cvLs_AccessLMem.exit
  %.0 = phi i32 [ 0, %cvLs_AccessLMem.exit ], [ -2, %16 ], [ -1, %11 ]
  ret i32 %.0
}